target datalayout = "e-m:e-p270:32:32-p271:32:32-p272:64:64-i64:64-i128:128-f80:128-n8:16:32:64-S128"
target triple = "x86_64-pc-linux-gnu"

%struct.alts_record_protocol_crypter = type { %struct.alts_crypter, ptr, ptr }
%struct.alts_crypter = type { ptr }

@__const._Z26alts_crypter_create_commonP17gsec_aead_crypterbmPPc.error_msg = private unnamed_addr constant [20 x i8] c"crypter is nullptr.\00", align 16

; Function Attrs: mustprogress uwtable
define internal void @_ZL20maybe_copy_error_msgPKcPPc(ptr noundef %0, ptr noundef %1) #0 {
  %3 = alloca ptr, align 8
  %4 = alloca ptr, align 8
  store ptr %0, ptr %3, align 8, !tbaa !8
  store ptr %1, ptr %4, align 8, !tbaa !12
  %5 = load ptr, ptr %4, align 8, !tbaa !12
  %6 = icmp ne ptr %5, null
  br i1 %6, label %7, label %22

7:                                                ; preds = %2
  %8 = load ptr, ptr %3, align 8, !tbaa !8
  %9 = icmp ne ptr %8, null
  br i1 %9, label %10, label %22

10:                                               ; preds = %7
  %11 = load ptr, ptr %3, align 8, !tbaa !8
  %12 = call i64 @strlen(ptr noundef %11) #5
  %13 = add i64 %12, 1
  %14 = call ptr @gpr_malloc(i64 noundef %13)
  %15 = load ptr, ptr %4, align 8, !tbaa !12
  store ptr %14, ptr %15, align 8, !tbaa !8
  %16 = load ptr, ptr %4, align 8, !tbaa !12
  %17 = load ptr, ptr %16, align 8, !tbaa !8
  %18 = load ptr, ptr %3, align 8, !tbaa !8
  %19 = load ptr, ptr %3, align 8, !tbaa !8
  %20 = call i64 @strlen(ptr noundef %19) #5
  %21 = add i64 %20, 1
  call void @llvm.memcpy.p0.p0.i64(ptr align 1 %17, ptr align 1 %18, i64 %21, i1 false)
  br label %22

22:                                               ; preds = %10, %7, %2
  ret void
}

; Function Attrs: mustprogress uwtable
define noundef ptr @_Z26alts_crypter_create_commonP17gsec_aead_crypterbmPPc(ptr noundef %0, i1 noundef zeroext %1, i64 noundef %2, ptr noundef %3) #0 {
  %5 = alloca ptr, align 8
  %6 = alloca ptr, align 8
  %7 = alloca i8, align 1
  %8 = alloca i64, align 8
  %9 = alloca ptr, align 8
  %10 = alloca ptr, align 8
  %11 = alloca i64, align 8
  %12 = alloca i32, align 4
  %13 = alloca i32, align 4
  %14 = alloca [20 x i8], align 16
  store ptr %0, ptr %6, align 8, !tbaa !32
  %15 = zext i1 %1 to i8
  store i8 %15, ptr %7, align 1, !tbaa !15
  store i64 %2, ptr %8, align 8, !tbaa !29
  store ptr %3, ptr %9, align 8, !tbaa !12
  %16 = load ptr, ptr %6, align 8, !tbaa !32
  %17 = icmp ne ptr %16, null
  br i1 %17, label %18, label %44

18:                                               ; preds = %4
  call void @llvm.lifetime.start.p0(i64 8, ptr %10) #6
  %19 = call ptr @gpr_malloc(i64 noundef 24)
  store ptr %19, ptr %10, align 8, !tbaa !3
  call void @llvm.lifetime.start.p0(i64 8, ptr %11) #6
  store i64 0, ptr %11, align 8, !tbaa !29
  call void @llvm.lifetime.start.p0(i64 4, ptr %12) #6
  %20 = load ptr, ptr %6, align 8, !tbaa !32
  %21 = load ptr, ptr %9, align 8, !tbaa !12
  %22 = call noundef i32 @_Z30gsec_aead_crypter_nonce_lengthPK17gsec_aead_crypterPmPPc(ptr noundef %20, ptr noundef %11, ptr noundef %21)
  store i32 %22, ptr %12, align 4, !tbaa !23
  %23 = load i32, ptr %12, align 4, !tbaa !23
  %24 = icmp ne i32 %23, 0
  br i1 %24, label %25, label %26

25:                                               ; preds = %18
  store ptr null, ptr %5, align 8
  store i32 1, ptr %13, align 4
  br label %43

26:                                               ; preds = %18
  %27 = load i8, ptr %7, align 1, !tbaa !15, !range !25, !noundef !26
  %28 = trunc i8 %27 to i1
  %29 = load i64, ptr %11, align 8, !tbaa !29
  %30 = load i64, ptr %8, align 8, !tbaa !29
  %31 = load ptr, ptr %10, align 8, !tbaa !3
  %32 = getelementptr inbounds nuw %struct.alts_record_protocol_crypter, ptr %31, i32 0, i32 2
  %33 = load ptr, ptr %9, align 8, !tbaa !12
  %34 = call noundef i32 @_Z19alts_counter_createbmmPP12alts_counterPPc(i1 noundef zeroext %28, i64 noundef %29, i64 noundef %30, ptr noundef %32, ptr noundef %33)
  store i32 %34, ptr %12, align 4, !tbaa !23
  %35 = load i32, ptr %12, align 4, !tbaa !23
  %36 = icmp ne i32 %35, 0
  br i1 %36, label %37, label %38

37:                                               ; preds = %26
  store ptr null, ptr %5, align 8
  store i32 1, ptr %13, align 4
  br label %43

38:                                               ; preds = %26
  %39 = load ptr, ptr %6, align 8, !tbaa !32
  %40 = load ptr, ptr %10, align 8, !tbaa !3
  %41 = getelementptr inbounds nuw %struct.alts_record_protocol_crypter, ptr %40, i32 0, i32 1
  store ptr %39, ptr %41, align 8, !tbaa !31
  %42 = load ptr, ptr %10, align 8, !tbaa !3
  store ptr %42, ptr %5, align 8
  store i32 1, ptr %13, align 4
  br label %43

43:                                               ; preds = %38, %37, %25
  call void @llvm.lifetime.end.p0(i64 4, ptr %12) #6
  call void @llvm.lifetime.end.p0(i64 8, ptr %11) #6
  call void @llvm.lifetime.end.p0(i64 8, ptr %10) #6
  br label %47

44:                                               ; preds = %4
  call void @llvm.lifetime.start.p0(i64 20, ptr %14) #6
  call void @llvm.memcpy.p0.p0.i64(ptr align 16 %14, ptr align 16 @__const._Z26alts_crypter_create_commonP17gsec_aead_crypterbmPPc.error_msg, i64 20, i1 false)
  %45 = getelementptr inbounds [20 x i8], ptr %14, i64 0, i64 0
  %46 = load ptr, ptr %9, align 8, !tbaa !12
  call void @_ZL20maybe_copy_error_msgPKcPPc(ptr noundef %45, ptr noundef %46)
  store ptr null, ptr %5, align 8
  store i32 1, ptr %13, align 4
  call void @llvm.lifetime.end.p0(i64 20, ptr %14) #6
  br label %47

47:                                               ; preds = %44, %43
  %48 = load ptr, ptr %5, align 8
  ret ptr %48
}