; Function Attrs: mustprogress uwtable
define noundef ptr @_Z26alts_crypter_create_commonP17gsec_aead_crypterbmPPc(ptr noundef %0, i1 noundef zeroext %1, i64 noundef %2, ptr noundef %3) local_unnamed_addr #0 {
  %5 = alloca i64, align 8
  %.not = icmp eq ptr %0, null
  br i1 %.not, label %16, label %6

6:                                                ; preds = %4
  %7 = tail call ptr @gpr_malloc(i64 noundef 24)
  call void @llvm.lifetime.start.p0(i64 8, ptr nonnull %5) #4
  store i64 0, ptr %5, align 8, !tbaa !18
  %8 = call noundef i32 @_Z30gsec_aead_crypter_nonce_lengthPK17gsec_aead_crypterPmPPc(ptr noundef nonnull %0, ptr noundef nonnull %5, ptr noundef %3)
  %.not14 = icmp eq i32 %8, 0
  br i1 %.not14, label %9, label %15

9:                                                ; preds = %6
  %10 = load i64, ptr %5, align 8, !tbaa !18
  %11 = getelementptr inbounds nuw i8, ptr %7, i64 16
  %12 = call noundef i32 @_Z19alts_counter_createbmmPP12alts_counterPPc(i1 noundef zeroext %1, i64 noundef %10, i64 noundef %2, ptr noundef nonnull %11, ptr noundef %3)
  %.not15 = icmp eq i32 %12, 0
  br i1 %.not15, label %13, label %15

13:                                               ; preds = %9
  %14 = getelementptr inbounds nuw i8, ptr %7, i64 8
  store ptr %0, ptr %14, align 8, !tbaa !20
  br label %15

15:                                               ; preds = %9, %6, %13
  %.0 = phi ptr [ %7, %13 ], [ null, %6 ], [ null, %9 ]
  call void @llvm.lifetime.end.p0(i64 8, ptr nonnull %5) #4
  br label %_ZL20maybe_copy_error_msgPKcPPc.exit

16:                                               ; preds = %4
  %.not16 = icmp eq ptr %3, null
  br i1 %.not16, label %_ZL20maybe_copy_error_msgPKcPPc.exit, label %17

17:                                               ; preds = %16
  %18 = tail call ptr @gpr_malloc(i64 noundef 20)
  store ptr %18, ptr %3, align 8, !tbaa !3
  tail call void @llvm.memcpy.p0.p0.i64(ptr noundef nonnull align 1 dereferenceable(20) %18, ptr noundef nonnull readonly align 16 dereferenceable(20) @__const._Z26alts_crypter_create_commonP17gsec_aead_crypterbmPPc.error_msg, i64 20, i1 false)
  br label %_ZL20maybe_copy_error_msgPKcPPc.exit

_ZL20maybe_copy_error_msgPKcPPc.exit:             ; preds = %17, %16, %15
  %.1 = phi ptr [ %.0, %15 ], [ null, %16 ], [ null, %17 ]
  ret ptr %.1
}